#The simulation print for the "test_branch.h" run
000: ff800513      li x10, -8
     x10 =               -8 (fffffff8)
004: 00500593      li x11, 5
     x11 =                5 (       5)
008: 00b50463      beq x10, x11, 16
     pc  =               12 (       c)
012: 00100613      li x12, 1
     x12 =                1 (       1)
016: 00b51463      bne x10, x11, 24
     pc  =               24 (      18)
024: 00b54463      blt x10, x11, 32
     pc  =               32 (      20)
032: 00b55463      bge x10, x11, 40
     pc  =               36 (      24)
036: 00200693      li x13, 2
     x13 =                2 (       2)
040: 00b56463      bltu x10, x11, 48
     pc  =               44 (      2c)
044: 00100713      li x14, 1
     x14 =                1 (       1)
048: 00b57463      bgeu x10, x11, 56
     pc  =               56 (      38)
056: 00008067      ret
     pc  =                0 (       0)
x1  =                0 (       0)
x2  =                0 (       0)
x3  =                0 (       0)
x4  =                0 (       0)
x5  =                0 (       0)
x6  =                0 (       0)
x7  =                0 (       0)
x8  =                0 (       0)
x9  =                0 (       0)
x10 =               -8 (fffffff8)
x11 =                5 (       5)
x12 =                1 (       1)
x13 =                2 (       2)
x14 =                1 (       1)
x15 =                0 (       0)
x16 =                0 (       0)
x17 =                0 (       0)
x18 =                0 (       0)
x19 =                0 (       0)
x20 =                0 (       0)
x21 =                0 (       0)
x22 =                0 (       0)
x23 =                0 (       0)
x24 =                0 (       0)
x25 =                0 (       0)
x26 =                0 (       0)
x27 =                0 (       0)
x28 =                0 (       0)
x29 =                0 (       0)
x30 =                0 (       0)
x31 =                0 (       0)
12 fetched and decoded instructions
last pc 56

#The simulation print for the "test_jal_jalr.h" run
000: 00008293      addi x5, x1, 0
     x5  =                0 (       0)
004: 00000517      auipc x10, 0
     x10 =                4 (       4)
008: 00000597      auipc x11, 0
     x11 =                8 (       8)
012: 00000613      li x12, 0
     x12 =                0 (       0)
016: 00000713      li x14, 0
     x14 =                0 (       0)
020: 0040006f      j 24
     pc  =               24 (      18)
024: 00160613      addi x12, x12, 1
     x12 =                1 (       1)
028: 020000ef      jal x1, 60
     pc  =               60 (      3c)
     x1  =               32 (      20)
060: 00160613      addi x12, x12, 1
     x12 =                2 (       2)
064: 00008067      ret
     pc  =               32 (      20)
032: 00300693      li x13, 3
     x13 =                3 (       3)
036: 034580e7      jalr 52(x11)
     pc  =               60 (      3c)
     x1  =               40 (      28)
060: 00160613      addi x12, x12, 1
     x12 =                3 (       3)
064: 00008067      ret
     pc  =               40 (      28)
040: 02c50067      jr 44(x10)
     pc  =               48 (      30)
048: 00170713      addi x14, x14, 1
     x14 =                1 (       1)
052: 00028093      addi x1, x5, 0
     x1  =                0 (       0)
056: 00008067      ret
     pc  =                0 (       0)
x1  =                0 (       0)
x2  =                0 (       0)
x3  =                0 (       0)
x4  =                0 (       0)
x5  =                0 (       0)
x6  =                0 (       0)
x7  =                0 (       0)
x8  =                0 (       0)
x9  =                0 (       0)
x10 =                4 (       4)
x11 =                8 (       8)
x12 =                3 (       3)
x13 =                3 (       3)
x14 =                1 (       1)
x15 =                0 (       0)
x16 =                0 (       0)
x17 =                0 (       0)
x18 =                0 (       0)
x19 =                0 (       0)
x20 =                0 (       0)
x21 =                0 (       0)
x22 =                0 (       0)
x23 =                0 (       0)
x24 =                0 (       0)
x25 =                0 (       0)
x26 =                0 (       0)
x27 =                0 (       0)
x28 =                0 (       0)
x29 =                0 (       0)
x30 =                0 (       0)
x31 =                0 (       0)
18 fetched and decoded instructions
last pc 56

#The simulation print for the "test_lui_auipc.h" run
000: 000015b7      lui x11, 1
     x11 =             4096 (    1000)
004: 00001617      auipc x12, 1
     x12 =             4100 (    1004)
008: 40b60633      sub x12, x12, x11
     x12 =                4 (       4)
012: 01460613      addi x12, x12, 20
     x12 =               24 (      18)
016: 00060067      jr x12
     pc  =               24 (      18)
024: 06400693      li x13, 100
     x13 =              100 (      64)
028: 00008067      ret
     pc  =                0 (       0)
x1  =                0 (       0)
x2  =                0 (       0)
x3  =                0 (       0)
x4  =                0 (       0)
x5  =                0 (       0)
x6  =                0 (       0)
x7  =                0 (       0)
x8  =                0 (       0)
x9  =                0 (       0)
x10 =                0 (       0)
x11 =             4096 (    1000)
x12 =               24 (      18)
x13 =              100 (      64)
x14 =                0 (       0)
x15 =                0 (       0)
x16 =                0 (       0)
x17 =                0 (       0)
x18 =                0 (       0)
x19 =                0 (       0)
x20 =                0 (       0)
x21 =                0 (       0)
x22 =                0 (       0)
x23 =                0 (       0)
x24 =                0 (       0)
x25 =                0 (       0)
x26 =                0 (       0)
x27 =                0 (       0)
x28 =                0 (       0)
x29 =                0 (       0)
x30 =                0 (       0)
x31 =                0 (       0)
7 fetched and decoded instructions
last pc 28

#The simulation print for the "test_op.h" run
000: 00d00513      li x10, 13
     x10 =               13 (       d)
004: 00c00713      li x14, 12
     x14 =               12 (       c)
008: 00700593      li x11, 7
     x11 =                7 (       7)
012: 01c00293      li x5, 28
     x5  =               28 (      1c)
016: ff600f93      li x31, -10
     x31 =              -10 (fffffff6)
020: 7e600913      li x18, 2022
     x18 =             2022 (     7e6)
024: 00058633      add x12, x11, x0
     x12 =                7 (       7)
028: 00a676b3      and x13, x12, x10
     x13 =                5 (       5)
032: 00e6e7b3      or x15, x13, x14
     x15 =               13 (       d)
036: 0057c833      xor x16, x15, x5
     x16 =               17 (      11)
040: 40b80833      sub x16, x16, x11
     x16 =               10 (       a)
044: 00a838b3      sltu x17, x16, x10
     x17 =                1 (       1)
048: 00581333      sll x6, x16, x5
     x6  =      -1610612736 (a0000000)
052: 01f323b3      slt x7, x6, x31
     x7  =                1 (       1)
056: 01233e33      sltu x28, x6, x18
     x28 =                0 (       0)
060: 00535eb3      srl x29, x6, x5
     x29 =               10 (       a)
064: 40535f33      sra x30, x6, x5
     x30 =               -6 (fffffffa)
068: 00008067      ret
     pc  =                0 (       0)
x1  =                0 (       0)
x2  =                0 (       0)
x3  =                0 (       0)
x4  =                0 (       0)
x5  =               28 (      1c)
x6  =      -1610612736 (a0000000)
x7  =                1 (       1)
x8  =                0 (       0)
x9  =                0 (       0)
x10 =               13 (       d)
x11 =                7 (       7)
x12 =                7 (       7)
x13 =                5 (       5)
x14 =               12 (       c)
x15 =               13 (       d)
x16 =               10 (       a)
x17 =                1 (       1)
x18 =             2022 (     7e6)
x19 =                0 (       0)
x20 =                0 (       0)
x21 =                0 (       0)
x22 =                0 (       0)
x23 =                0 (       0)
x24 =                0 (       0)
x25 =                0 (       0)
x26 =                0 (       0)
x27 =                0 (       0)
x28 =                0 (       0)
x29 =               10 (       a)
x30 =               -6 (fffffffa)
x31 =              -10 (fffffff6)
18 fetched and decoded instructions
last pc 68

#The simulation print for the "test_op_imm.h" run
000: 00500593      li x11, 5
     x11 =                5 (       5)
004: 00158613      addi x12, x11, 1
     x12 =                6 (       6)
008: 00c67693      andi x13, x12, 12
     x13 =                4 (       4)
012: fff68713      addi x14, x13, -1
     x14 =                3 (       3)
016: 00576793      ori x15, x14, 5
     x15 =                7 (       7)
020: 00c7c813      xori x16, x15, 12
     x16 =               11 (       b)
024: 00d83893      sltiu x17, x16, 13
     x17 =                1 (       1)
028: 00b83293      sltiu x5, x16, 11
     x5  =                0 (       0)
032: 01c81313      slli x6, x16, 28
     x6  =      -1342177280 (b0000000)
036: ff632393      slti x7, x6, -10
     x7  =                1 (       1)
040: 7e633e13      sltiu x28, x6, 2022
     x28 =                0 (       0)
044: 01c35e93      srli x29, x6, 28
     x29 =               11 (       b)
048: 41c35f13      srai x30, x6, 28
     x30 =               -5 (fffffffb)
052: 00008067      ret
     pc  =                0 (       0)
x1  =                0 (       0)
x2  =                0 (       0)
x3  =                0 (       0)
x4  =                0 (       0)
x5  =                0 (       0)
x6  =      -1342177280 (b0000000)
x7  =                1 (       1)
x8  =                0 (       0)
x9  =                0 (       0)
x10 =                0 (       0)
x11 =                5 (       5)
x12 =                6 (       6)
x13 =                4 (       4)
x14 =                3 (       3)
x15 =                7 (       7)
x16 =               11 (       b)
x17 =                1 (       1)
x18 =                0 (       0)
x19 =                0 (       0)
x20 =                0 (       0)
x21 =                0 (       0)
x22 =                0 (       0)
x23 =                0 (       0)
x24 =                0 (       0)
x25 =                0 (       0)
x26 =                0 (       0)
x27 =                0 (       0)
x28 =                0 (       0)
x29 =               11 (       b)
x30 =               -5 (fffffffb)
x31 =                0 (       0)
14 fetched and decoded instructions
last pc 52

#The simulation print for the "test_sum.h" run
000: 00000513      li x10, 0
     x10 =                0 (       0)
004: 00000593      li x11, 0
     x11 =                0 (       0)
008: 00a00613      li x12, 10
     x12 =               10 (       a)
012: 00158593      addi x11, x11, 1
     x11 =                1 (       1)
016: 00b50533      add x10, x10, x11
     x10 =                1 (       1)
020: fec59ce3      bne x11, x12, 12
     pc  =               12 (       c)
012: 00158593      addi x11, x11, 1
     x11 =                2 (       2)
016: 00b50533      add x10, x10, x11
     x10 =                3 (       3)
020: fec59ce3      bne x11, x12, 12
     pc  =               12 (       c)
012: 00158593      addi x11, x11, 1
     x11 =                3 (       3)
016: 00b50533      add x10, x10, x11
     x10 =                6 (       6)
020: fec59ce3      bne x11, x12, 12
     pc  =               12 (       c)
012: 00158593      addi x11, x11, 1
     x11 =                4 (       4)
016: 00b50533      add x10, x10, x11
     x10 =               10 (       a)
020: fec59ce3      bne x11, x12, 12
     pc  =               12 (       c)
012: 00158593      addi x11, x11, 1
     x11 =                5 (       5)
016: 00b50533      add x10, x10, x11
     x10 =               15 (       f)
020: fec59ce3      bne x11, x12, 12
     pc  =               12 (       c)
012: 00158593      addi x11, x11, 1
     x11 =                6 (       6)
016: 00b50533      add x10, x10, x11
     x10 =               21 (      15)
020: fec59ce3      bne x11, x12, 12
     pc  =               12 (       c)
012: 00158593      addi x11, x11, 1
     x11 =                7 (       7)
016: 00b50533      add x10, x10, x11
     x10 =               28 (      1c)
020: fec59ce3      bne x11, x12, 12
     pc  =               12 (       c)
012: 00158593      addi x11, x11, 1
     x11 =                8 (       8)
016: 00b50533      add x10, x10, x11
     x10 =               36 (      24)
020: fec59ce3      bne x11, x12, 12
     pc  =               12 (       c)
012: 00158593      addi x11, x11, 1
     x11 =                9 (       9)
016: 00b50533      add x10, x10, x11
     x10 =               45 (      2d)
020: fec59ce3      bne x11, x12, 12
     pc  =               12 (       c)
012: 00158593      addi x11, x11, 1
     x11 =               10 (       a)
016: 00b50533      add x10, x10, x11
     x10 =               55 (      37)
020: fec59ce3      bne x11, x12, 12
     pc  =               24 (      18)
024: 00008067      ret
     pc  =                0 (       0)
x1  =                0 (       0)
x2  =                0 (       0)
x3  =                0 (       0)
x4  =                0 (       0)
x5  =                0 (       0)
x6  =                0 (       0)
x7  =                0 (       0)
x8  =                0 (       0)
x9  =                0 (       0)
x10 =               55 (      37)
x11 =               10 (       a)
x12 =               10 (       a)
x13 =                0 (       0)
x14 =                0 (       0)
x15 =                0 (       0)
x16 =                0 (       0)
x17 =                0 (       0)
x18 =                0 (       0)
x19 =                0 (       0)
x20 =                0 (       0)
x21 =                0 (       0)
x22 =                0 (       0)
x23 =                0 (       0)
x24 =                0 (       0)
x25 =                0 (       0)
x26 =                0 (       0)
x27 =                0 (       0)
x28 =                0 (       0)
x29 =                0 (       0)
x30 =                0 (       0)
x31 =                0 (       0)
34 fetched and decoded instructions
last pc 24

